; Function Attrs: mustprogress nofree norecurse nosync nounwind memory(argmem: readwrite) uwtable
define void @_ZN3gmx20ColvarsForceProvider13addVirialTermEPA3_fRA3_KfRKNS_11BasicVectorIfEE(ptr nocapture noundef %0, ptr nocapture noundef nonnull readonly align 4 dereferenceable(12) %1, ptr nocapture noundef nonnull readonly align 4 dereferenceable(12) %2) local_unnamed_addr #16 align 2 {
  br label %.preheader

.preheader:                                       ; preds = %3, %17
  %indvars.iv14 = phi i64 [ 0, %3 ], [ %indvars.iv.next15, %17 ]
  %4 = getelementptr inbounds [3 x float], ptr %1, i64 0, i64 %indvars.iv14
  br label %5

5:                                                ; preds = %.preheader, %5
  %indvars.iv = phi i64 [ 0, %.preheader ], [ %indvars.iv.next, %5 ]
  %6 = load float, ptr %4, align 4
  %7 = fpext float %6 to double
  %8 = getelementptr inbounds [3 x float], ptr %2, i64 0, i64 %indvars.iv
  %9 = load float, ptr %8, align 4
  %10 = fpext float %9 to double
  %11 = getelementptr inbounds [3 x float], ptr %0, i64 %indvars.iv14, i64 %indvars.iv
  %12 = load float, ptr %11, align 4
  %13 = fpext float %12 to double
  %14 = fmul double %7, -5.000000e-01
  %15 = tail call double @llvm.fmuladd.f64(double %14, double %10, double %13)
  %16 = fptrunc double %15 to float
  store float %16, ptr %11, align 4
  %indvars.iv.next = add nuw nsw i64 %indvars.iv, 1
  %exitcond.not = icmp eq i64 %indvars.iv.next, 3
  br i1 %exitcond.not, label %17, label %5, !llvm.loop !10

17:                                               ; preds = %5
  %indvars.iv.next15 = add nuw nsw i64 %indvars.iv14, 1
  %exitcond17.not = icmp eq i64 %indvars.iv.next15, 3
  br i1 %exitcond17.not, label %18, label %.preheader, !llvm.loop !11

18:                                               ; preds = %17
  ret void
}